; Function Attrs: mustprogress uwtable
define void @_ZN7mitsuba6Stream9read_lineEv(ptr dead_on_unwind noalias nonnull writable sret(%"class.std::__1::basic_string") align 8 %0, ptr noundef nonnull align 8 dereferenceable(16) %1) unnamed_addr #6 align 2 personality ptr @__gxx_personality_v0 {
  %3 = alloca i8, align 1
  tail call void @llvm.memset.p0.i64(ptr noundef nonnull align 8 dereferenceable(24) %0, i8 0, i64 24, i1 false)
  invoke void @_ZNSt3__112basic_stringIcNS_11char_traitsIcEENS_9allocatorIcEEE7reserveEm(ptr noundef nonnull align 8 dereferenceable(24) %0, i64 noundef 80)
          to label %.preheader unwind label %9

.preheader:                                       ; preds = %2, %.preheader.backedge
  %4 = load ptr, ptr %1, align 8
  %5 = getelementptr inbounds i8, ptr %4, i64 88
  %6 = load ptr, ptr %5, align 8
  invoke void %6(ptr noundef nonnull align 8 dereferenceable(16) %1, ptr noundef nonnull %3, i64 noundef 1)
          to label %7 unwind label %11

7:                                                ; preds = %.preheader
  %8 = load i8, ptr %3, align 1
  switch i8 %8, label %36 [
    i8 10, label %.loopexit
    i8 13, label %.preheader.backedge
  ]

9:                                                ; preds = %35, %2
  %10 = landingpad { ptr, i32 }
          cleanup
  br label %40

11:                                               ; preds = %36, %.preheader
  %12 = landingpad { ptr, i32 }
          catch ptr null
  %13 = extractvalue { ptr, i32 } %12, 0
  %14 = call ptr @__cxa_begin_catch(ptr %13) #16
  %15 = load ptr, ptr %1, align 8
  %16 = getelementptr inbounds i8, ptr %15, i64 120
  %17 = load ptr, ptr %16, align 8
  %18 = invoke noundef i64 %17(ptr noundef nonnull align 8 dereferenceable(16) %1)
          to label %19 unwind label %37

19:                                               ; preds = %11
  %20 = load ptr, ptr %1, align 8
  %21 = getelementptr inbounds i8, ptr %20, i64 128
  %22 = load ptr, ptr %21, align 8
  %23 = invoke noundef i64 %22(ptr noundef nonnull align 8 dereferenceable(16) %1)
          to label %24 unwind label %37

24:                                               ; preds = %19
  %25 = icmp eq i64 %18, %23
  br i1 %25, label %26, label %39

26:                                               ; preds = %24
  %27 = load i8, ptr %0, align 8
  %28 = and i8 %27, 1
  %.not.i.i = icmp eq i8 %28, 0
  %29 = getelementptr inbounds i8, ptr %0, i64 8
  %30 = load i64, ptr %29, align 8
  %31 = lshr i8 %27, 1
  %32 = zext nneg i8 %31 to i64
  %33 = select i1 %.not.i.i, i64 %32, i64 %30
  %34 = icmp eq i64 %33, 0
  br i1 %34, label %39, label %35

35:                                               ; preds = %26
  invoke void @__cxa_end_catch()
          to label %.loopexit unwind label %9

36:                                               ; preds = %7
  invoke void @_ZNSt3__112basic_stringIcNS_11char_traitsIcEENS_9allocatorIcEEE9push_backEc(ptr noundef nonnull align 8 dereferenceable(24) %0, i8 noundef signext %8)
          to label %.preheader.backedge unwind label %11

.preheader.backedge:                              ; preds = %36, %7
  br label %.preheader, !llvm.loop !4

37:                                               ; preds = %39, %19, %11
  %38 = landingpad { ptr, i32 }
          cleanup
  invoke void @__cxa_end_catch()
          to label %40 unwind label %41

39:                                               ; preds = %26, %24
  invoke void @__cxa_rethrow() #20
          to label %44 unwind label %37

.loopexit:                                        ; preds = %7, %35
  ret void

40:                                               ; preds = %37, %9
  %.pn = phi { ptr, i32 } [ %38, %37 ], [ %10, %9 ]
  call void @_ZNSt3__112basic_stringIcNS_11char_traitsIcEENS_9allocatorIcEEED1Ev(ptr noundef nonnull align 8 dereferenceable(24) %0) #16
  resume { ptr, i32 } %.pn

41:                                               ; preds = %37
  %42 = landingpad { ptr, i32 }
          catch ptr null
  %43 = extractvalue { ptr, i32 } %42, 0
  call void @__clang_call_terminate(ptr %43) #17
  unreachable

44:                                               ; preds = %39
  unreachable
}